ccopy_reg
_reconstructor
p0
(cgoogle.oauth2.credentials
Credentials
p1
c__builtin__
object
p2
Ntp3
Rp4
(dp5
S'_token_uri'
p6
Vhttps://oauth2.googleapis.com/token
p7
sS'_scopes'
p8
(lp9
S'https://www.googleapis.com/auth/drive'
p10
asS'_id_token'
p11
NsS'token'
p12
Vya29.GlxNBw5FxbKb2DRJ-GwKL79vjr1SIsqgf0idGi8J8zxarqorX-ZMQ7cQUo8Y1jJliu7CrpsLhQlI6i0sT761tK9bU0TgFKopFlbSBHxPsjEfJC1lWw0--68egtaygQ
p13
sS'_refresh_token'
p14
V1/kYjR_aR1FXO4Av0TYJp9Ab4ncYRqkbT2cQl5LIp8BGw
p15
sS'_client_secret'
p16
V04AeepyJI4uj53dc5NNYnSYc
p17
sS'_client_id'
p18
V689234314900-s3tt9ghkn5rk7758ovhsc657h6193qaa.apps.googleusercontent.com
p19
sS'expiry'
p20
cdatetime
datetime
p21
(S'\x07\xe3\x07\x16\x0f\x1c$\x00\xe0\x07'
p22
tp23
Rp24
sb.